; Function Attrs: mustprogress nofree norecurse nosync nounwind willreturn memory(readwrite, inaccessiblemem: none) uwtable
define internal noundef nonnull ptr @_operator_is_none(ptr readnone captures(none) %0, ptr noundef readnone %1) #2 {
  %3 = icmp eq ptr %1, @_Py_NoneStruct
  %4 = select i1 %3, ptr @_Py_TrueStruct, ptr @_Py_FalseStruct
  %5 = load i32, ptr %4, align 8, !tbaa !18
  %6 = icmp slt i32 %5, 0
  br i1 %6, label %_Py_NewRef.exit, label %7

7:                                                ; preds = %2
  %8 = add nuw i32 %5, 1
  store i32 %8, ptr %4, align 8, !tbaa !18
  br label %_Py_NewRef.exit

_Py_NewRef.exit:                                  ; preds = %2, %7
  ret ptr %4
}